target datalayout = "e-m:e-p270:32:32-p271:32:32-p272:64:64-i64:64-i128:128-f80:128-n8:16:32:64-S128"
target triple = "x86_64-pc-linux-gnu"

%class.ZLock = type { %class.PlatformMutex }
%class.PlatformMutex = type { %union.pthread_mutex_t }
%union.pthread_mutex_t = type { %struct.__pthread_mutex_s }
%struct.__pthread_mutex_s = type { i32, i32, i32, i32, i32, i16, i16, %struct.__pthread_internal_list }
%struct.__pthread_internal_list = type { ptr, ptr }
%struct.ZStoreBarrierEntry = type { ptr, i64 }
%class.ZStoreBarrierBuffer = type { [32 x %struct.ZStoreBarrierEntry], i64, i64, %class.ZLock, [32 x i64], i64 }
%class.ZThreadLocalData = type { i64, i64, i64, i64, i64, i64, i64, ptr, [2 x %class.ZMarkThreadLocalStacks], ptr }
%class.ZMarkThreadLocalStacks = type { ptr, [16 x ptr] }
%class.Thread = type { %class.ThreadShadow.base, i64, [43 x i64], ptr, ptr, i32, ptr, i64, i64, %class.ThreadLocalAllocBuffer, i64, %class.ThreadHeapSampler, %class.ThreadStatisticalInfo, %class.JfrThreadLocal, ptr, ptr, ptr, ptr, ptr, ptr, i64, i32, i32, ptr, i32, i32, i32, i32, i8, ptr }
%class.ThreadShadow.base = type <{ ptr, ptr, ptr, i32 }>
%class.ThreadLocalAllocBuffer = type <{ ptr, ptr, ptr, ptr, ptr, i64, i64, i64, i64, i32, i32, i32, i32, i64, %class.AdaptiveWeightedAverage, [4 x i8] }>
%class.AdaptiveWeightedAverage = type { float, i32, i32, i8, float }
%class.ThreadHeapSampler = type { i64 }
%class.ThreadStatisticalInfo = type { i64, i64 }
%class.JfrThreadLocal = type <{ ptr, ptr, ptr, ptr, ptr, ptr, ptr, ptr, ptr, ptr, %class.RefCountHandle, i64, i64, i64, i64, i64, i64, i64, i64, i64, i64, i64, i32, i32, i32, i16, i8, i8, i8, i8, i8, [5 x i8] }>
%class.RefCountHandle = type { ptr }

@_ZN6Thread12_thr_currentE = external thread_local global ptr, align 8
@ZBufferStoreBarriers = external global i8, align 1

; Function Attrs: mustprogress nounwind uwtable
define linkonce_odr hidden noundef ptr @_ZN6Thread7gc_dataI16ZThreadLocalDataEEPT_v(ptr noundef nonnull align 8 dereferenceable(888) %0) #1 comdat align 2 {
  %2 = alloca ptr, align 8
  store ptr %0, ptr %2, align 8
  %3 = load ptr, ptr %2, align 8
  %4 = getelementptr inbounds %class.Thread, ptr %3, i32 0, i32 2
  ret ptr %4
}

; Function Attrs: mustprogress nounwind uwtable
define linkonce_odr hidden noundef ptr @_ZN16ZThreadLocalData4dataEP6Thread(ptr noundef %0) #1 comdat align 2 {
  %2 = alloca ptr, align 8
  store ptr %0, ptr %2, align 8
  %3 = load ptr, ptr %2, align 8
  %4 = call noundef ptr @_ZN6Thread7gc_dataI16ZThreadLocalDataEEPT_v(ptr noundef nonnull align 8 dereferenceable(888) %3)
  ret ptr %4
}

; Function Attrs: mustprogress nounwind uwtable
define linkonce_odr hidden noundef ptr @_ZN6Thread15current_or_nullEv() #1 comdat align 2 {
  %1 = call align 8 ptr @llvm.threadlocal.address.p0(ptr align 8 @_ZN6Thread12_thr_currentE)
  %2 = load ptr, ptr %1, align 8
  ret ptr %2
}

; Function Attrs: mustprogress nounwind uwtable
define linkonce_odr hidden noundef i64 @_ZNK19ZStoreBarrierBuffer7currentEv(ptr noundef nonnull align 8 dereferenceable(832) %0) #1 comdat align 2 {
  %2 = alloca ptr, align 8
  store ptr %0, ptr %2, align 8
  %3 = load ptr, ptr %2, align 8
  %4 = getelementptr inbounds %class.ZStoreBarrierBuffer, ptr %3, i32 0, i32 5
  %5 = load i64, ptr %4, align 8
  %6 = udiv i64 %5, 16
  ret i64 %6
}

; Function Attrs: mustprogress nounwind uwtable
define linkonce_odr hidden noundef ptr @_ZN16ZThreadLocalData20store_barrier_bufferEP6Thread(ptr noundef %0) #1 comdat align 2 {
  %2 = alloca ptr, align 8
  store ptr %0, ptr %2, align 8
  %3 = load ptr, ptr %2, align 8
  %4 = call noundef ptr @_ZN16ZThreadLocalData4dataEP6Thread(ptr noundef %3)
  %5 = getelementptr inbounds %class.ZThreadLocalData, ptr %4, i32 0, i32 7
  %6 = load ptr, ptr %5, align 8
  ret ptr %6
}

; Function Attrs: mustprogress nounwind uwtable
define linkonce_odr hidden noundef ptr @_ZN10JavaThread4castEP6Thread(ptr noundef %0) #1 comdat align 2 {
  %2 = alloca ptr, align 8
  store ptr %0, ptr %2, align 8
  %3 = load ptr, ptr %2, align 8
  ret ptr %3
}

; Function Attrs: mustprogress nounwind uwtable
define linkonce_odr hidden noundef ptr @_ZN6Thread7currentEv() #1 comdat align 2 {
  %1 = alloca ptr, align 8
  %2 = call noundef ptr @_ZN6Thread15current_or_nullEv()
  store ptr %2, ptr %1, align 8
  %3 = load ptr, ptr %1, align 8
  ret ptr %3
}

; Function Attrs: mustprogress nounwind uwtable
define linkonce_odr hidden void @_ZN19ZStoreBarrierBuffer3addEPV8zpointerS0_(ptr noundef nonnull align 8 dereferenceable(832) %0, ptr noundef %1, i64 noundef %2) #1 comdat align 2 {
  %4 = alloca ptr, align 8
  %5 = alloca ptr, align 8
  %6 = alloca i64, align 8
  %7 = alloca %struct.ZStoreBarrierEntry, align 8
  store ptr %0, ptr %4, align 8
  store ptr %1, ptr %5, align 8
  store i64 %2, ptr %6, align 8
  %8 = load ptr, ptr %4, align 8
  %9 = getelementptr inbounds %class.ZStoreBarrierBuffer, ptr %8, i32 0, i32 5
  %10 = load i64, ptr %9, align 8
  %11 = icmp eq i64 %10, 0
  br i1 %11, label %12, label %13

12:                                               ; preds = %3
  call void @_ZN19ZStoreBarrierBuffer5flushEv(ptr noundef nonnull align 8 dereferenceable(832) %8)
  br label %13

13:                                               ; preds = %12, %3
  %14 = getelementptr inbounds %class.ZStoreBarrierBuffer, ptr %8, i32 0, i32 5
  %15 = load i64, ptr %14, align 8
  %16 = sub i64 %15, 16
  store i64 %16, ptr %14, align 8
  %17 = getelementptr inbounds %struct.ZStoreBarrierEntry, ptr %7, i32 0, i32 0
  %18 = load ptr, ptr %5, align 8
  store ptr %18, ptr %17, align 8
  %19 = getelementptr inbounds %struct.ZStoreBarrierEntry, ptr %7, i32 0, i32 1
  %20 = load i64, ptr %6, align 8
  store i64 %20, ptr %19, align 8
  %21 = getelementptr inbounds %class.ZStoreBarrierBuffer, ptr %8, i32 0, i32 0
  %22 = call noundef i64 @_ZNK19ZStoreBarrierBuffer7currentEv(ptr noundef nonnull align 8 dereferenceable(832) %8)
  %23 = getelementptr inbounds [32 x %struct.ZStoreBarrierEntry], ptr %21, i64 0, i64 %22
  call void @llvm.memcpy.p0.p0.i64(ptr align 8 %23, ptr align 8 %7, i64 16, i1 false)
  ret void
}

; Function Attrs: mustprogress nounwind uwtable
define linkonce_odr hidden noundef ptr @_ZN19ZStoreBarrierBuffer16buffer_for_storeEb(i1 noundef zeroext %0) #1 comdat align 2 {
  %2 = alloca ptr, align 8
  %3 = alloca i8, align 1
  %4 = alloca ptr, align 8
  %5 = alloca ptr, align 8
  %6 = zext i1 %0 to i8
  store i8 %6, ptr %3, align 1
  %7 = load i8, ptr %3, align 1
  %8 = trunc i8 %7 to i1
  br i1 %8, label %9, label %10

9:                                                ; preds = %1
  store ptr null, ptr %2, align 8
  br label %29

10:                                               ; preds = %1
  %11 = call noundef ptr @_ZN6Thread7currentEv()
  store ptr %11, ptr %4, align 8
  %12 = load ptr, ptr %4, align 8
  %13 = load ptr, ptr %12, align 8
  %14 = getelementptr inbounds ptr, ptr %13, i64 7
  %15 = load ptr, ptr %14, align 8
  %16 = call noundef zeroext i1 %15(ptr noundef nonnull align 8 dereferenceable(888) %12)
  br i1 %16, label %18, label %17

17:                                               ; preds = %10
  store ptr null, ptr %2, align 8
  br label %29

18:                                               ; preds = %10
  %19 = load ptr, ptr %4, align 8
  %20 = call noundef ptr @_ZN10JavaThread4castEP6Thread(ptr noundef %19)
  %21 = call noundef ptr @_ZN16ZThreadLocalData20store_barrier_bufferEP6Thread(ptr noundef %20)
  store ptr %21, ptr %5, align 8
  %22 = load i8, ptr @ZBufferStoreBarriers, align 1
  %23 = trunc i8 %22 to i1
  br i1 %23, label %24, label %26

24:                                               ; preds = %18
  %25 = load ptr, ptr %5, align 8
  br label %27

26:                                               ; preds = %18
  br label %27

27:                                               ; preds = %26, %24
  %28 = phi ptr [ %25, %24 ], [ null, %26 ]
  store ptr %28, ptr %2, align 8
  br label %29

29:                                               ; preds = %27, %17, %9
  %30 = load ptr, ptr %2, align 8
  ret ptr %30
}

; Function Attrs: mustprogress nounwind uwtable
define hidden noundef i64 @_ZN8ZBarrier20heap_store_slow_pathEPV8zpointer8zaddressS0_b(ptr noundef %0, i64 noundef %1, i64 noundef %2, i1 noundef zeroext %3) #1 align 2 {
  %5 = alloca ptr, align 8
  %6 = alloca i64, align 8
  %7 = alloca i64, align 8
  %8 = alloca i8, align 1
  %9 = alloca ptr, align 8
  store ptr %0, ptr %5, align 8
  store i64 %1, ptr %6, align 8
  store i64 %2, ptr %7, align 8
  %10 = zext i1 %3 to i8
  store i8 %10, ptr %8, align 1
  %11 = load i8, ptr %8, align 1
  %12 = trunc i8 %11 to i1
  %13 = call noundef ptr @_ZN19ZStoreBarrierBuffer16buffer_for_storeEb(i1 noundef zeroext %12)
  store ptr %13, ptr %9, align 8
  %14 = load ptr, ptr %9, align 8
  %15 = icmp ne ptr %14, null
  br i1 %15, label %16, label %20

16:                                               ; preds = %4
  %17 = load ptr, ptr %9, align 8
  %18 = load ptr, ptr %5, align 8
  %19 = load i64, ptr %7, align 8
  call void @_ZN19ZStoreBarrierBuffer3addEPV8zpointerS0_(ptr noundef nonnull align 8 dereferenceable(832) %17, ptr noundef %18, i64 noundef %19)
  br label %23

20:                                               ; preds = %4
  %21 = load ptr, ptr %5, align 8
  %22 = load i64, ptr %6, align 8
  call void @_ZN8ZBarrier17mark_and_rememberEPV8zpointer8zaddress(ptr noundef %21, i64 noundef %22)
  br label %23

23:                                               ; preds = %20, %16
  %24 = load i64, ptr %6, align 8
  ret i64 %24
}