; Function Attrs: mustprogress nounwind uwtable
define hidden noundef i64 @_ZN8ZBarrier20heap_store_slow_pathEPV8zpointer8zaddressS0_b(ptr noundef %0, i64 noundef returned %1, i64 noundef %2, i1 noundef zeroext %3) local_unnamed_addr #0 align 2 {
  br i1 %3, label %_ZN19ZStoreBarrierBuffer16buffer_for_storeEb.exit.thread, label %5

5:                                                ; preds = %4
  %6 = tail call align 8 ptr @llvm.threadlocal.address.p0(ptr align 8 @_ZN6Thread12_thr_currentE)
  %7 = load ptr, ptr %6, align 8
  %8 = load ptr, ptr %7, align 8
  %9 = getelementptr inbounds i8, ptr %8, i64 56
  %10 = load ptr, ptr %9, align 8
  %11 = tail call noundef zeroext i1 %10(ptr noundef nonnull align 8 dereferenceable(888) %7) #6
  br i1 %11, label %12, label %_ZN19ZStoreBarrierBuffer16buffer_for_storeEb.exit.thread

12:                                               ; preds = %5
  %13 = getelementptr inbounds i8, ptr %7, i64 96
  %14 = load ptr, ptr %13, align 8
  %15 = load i8, ptr @ZBufferStoreBarriers, align 1
  %16 = trunc i8 %15 to i1
  %.not = icmp ne ptr %14, null
  %or.cond.not = select i1 %16, i1 %.not, i1 false
  br i1 %or.cond.not, label %17, label %_ZN19ZStoreBarrierBuffer16buffer_for_storeEb.exit.thread

17:                                               ; preds = %12
  %18 = getelementptr inbounds i8, ptr %14, i64 824
  %19 = load i64, ptr %18, align 8
  %20 = icmp eq i64 %19, 0
  br i1 %20, label %21, label %_ZN19ZStoreBarrierBuffer3addEPV8zpointerS0_.exit

21:                                               ; preds = %17
  tail call void @_ZN19ZStoreBarrierBuffer5flushEv(ptr noundef nonnull align 8 dereferenceable(832) %14) #6
  %.pre.i = load i64, ptr %18, align 8
  br label %_ZN19ZStoreBarrierBuffer3addEPV8zpointerS0_.exit

_ZN19ZStoreBarrierBuffer3addEPV8zpointerS0_.exit: ; preds = %17, %21
  %22 = phi i64 [ %.pre.i, %21 ], [ %19, %17 ]
  %23 = add i64 %22, -16
  store i64 %23, ptr %18, align 8
  %24 = lshr i64 %23, 4
  %25 = getelementptr inbounds [32 x %struct.ZStoreBarrierEntry], ptr %14, i64 0, i64 %24
  store ptr %0, ptr %25, align 8
  %.sroa.2.0..sroa_idx.i = getelementptr inbounds i8, ptr %25, i64 8
  store i64 %2, ptr %.sroa.2.0..sroa_idx.i, align 8
  br label %26

_ZN19ZStoreBarrierBuffer16buffer_for_storeEb.exit.thread: ; preds = %5, %4, %12
  tail call void @_ZN8ZBarrier17mark_and_rememberEPV8zpointer8zaddress(ptr noundef %0, i64 noundef %1)
  br label %26

26:                                               ; preds = %_ZN19ZStoreBarrierBuffer16buffer_for_storeEb.exit.thread, %_ZN19ZStoreBarrierBuffer3addEPV8zpointerS0_.exit
  ret i64 %1
}